; Function Attrs: nounwind uwtable
define internal void @BZ2Compressor_dealloc(ptr noundef %0) #0 {
  %2 = getelementptr inbounds nuw i8, ptr %0, i64 16
  %3 = tail call i32 @BZ2_bzCompressEnd(ptr noundef nonnull %2) #7
  %4 = getelementptr inbounds nuw i8, ptr %0, i64 104
  %5 = load ptr, ptr %4, align 8, !tbaa !12
  %.not = icmp eq ptr %5, null
  br i1 %.not, label %7, label %6

6:                                                ; preds = %1
  tail call void @PyThread_free_lock(ptr noundef nonnull %5) #7
  br label %7

7:                                                ; preds = %6, %1
  %8 = getelementptr i8, ptr %0, i64 8
  %.val = load ptr, ptr %8, align 8, !tbaa !18
  %9 = getelementptr inbounds nuw i8, ptr %.val, i64 320
  %10 = load ptr, ptr %9, align 8, !tbaa !19
  tail call void %10(ptr noundef nonnull %0) #7
  %11 = load i32, ptr %.val, align 8, !tbaa !11
  %.not.i = icmp sgt i32 %11, -1
  br i1 %.not.i, label %12, label %Py_DECREF.exit

12:                                               ; preds = %7
  %13 = add nsw i32 %11, -1
  store i32 %13, ptr %.val, align 8, !tbaa !11
  %14 = icmp eq i32 %13, 0
  br i1 %14, label %15, label %Py_DECREF.exit

15:                                               ; preds = %12
  tail call void @_Py_Dealloc(ptr noundef nonnull %.val) #7
  br label %Py_DECREF.exit

Py_DECREF.exit:                                   ; preds = %7, %12, %15
  ret void
}